target datalayout = "e-m:e-p270:32:32-p271:32:32-p272:64:64-i64:64-i128:128-f80:128-n8:16:32:64-S128"
target triple = "x86_64-pc-linux-gnu"

%struct._GLFWwindow = type { ptr, i32, i32, i32, i32, i32, i32, i32, ptr, i32, %struct.GLFWvidmode, ptr, ptr, ptr, i32, i32, i32, i32, i32, i32, i32, i32, i32, i32, [8 x i8], [349 x i8], double, double, i32, %struct._GLFWcontext, %struct.anon.33, %struct._GLFWwindowWayland, %struct._GLFWwindowX11, %struct._GLFWwindowNull }
%struct.GLFWvidmode = type { i32, i32, i32, i32, i32, i32 }
%struct._GLFWcontext = type { i32, i32, i32, i32, i32, i32, i32, i32, i32, i32, i32, ptr, ptr, ptr, ptr, ptr, ptr, ptr, ptr, ptr, %struct.anon.31, %struct.anon.32, %struct._GLFWcontextGLX }
%struct.anon.31 = type { ptr, ptr, ptr, ptr }
%struct.anon.32 = type { ptr, i32, i32, ptr }
%struct._GLFWcontextGLX = type { ptr, i64 }
%struct.anon.33 = type { ptr, ptr, ptr, ptr, ptr, ptr, ptr, ptr, ptr, ptr, ptr, ptr, ptr, ptr, ptr, ptr, ptr }
%struct._GLFWwindowWayland = type { i32, i32, i32, i32, i32, i32, i32, i32, i32, i32, i32, ptr, ptr, %struct.anon.34, %struct.anon.35, %struct.anon.36, %struct.anon.37, ptr, double, double, ptr, i32, ptr, i64, i64, ptr, i32, ptr, ptr, ptr, ptr, ptr, ptr, %struct.anon.38 }
%struct.anon.34 = type { ptr }
%struct.anon.35 = type { i32, i32, i32, i32, i32, i32 }
%struct.anon.36 = type { ptr, ptr, ptr, i32 }
%struct.anon.37 = type { ptr }
%struct.anon.38 = type { i32, ptr, %struct._GLFWfallbackEdgeWayland, %struct._GLFWfallbackEdgeWayland, %struct._GLFWfallbackEdgeWayland, %struct._GLFWfallbackEdgeWayland, ptr }
%struct._GLFWfallbackEdgeWayland = type { ptr, ptr, ptr }
%struct._GLFWwindowX11 = type { i64, i64, i64, ptr, i32, i32, i32, i32, i32, i32, i32, i32, i32, i32, i32, i32, [256 x i64] }
%struct._GLFWwindowNull = type { i32, i32, i32, i32, i32, i32, i32, i32, i32, i32, i32, float }
%union.anon = type { double }

; Function Attrs: inlinehint nounwind uwtable
define internal double @wl_fixed_to_double(i32 noundef %0) #1 {
  %2 = alloca i32, align 4
  %3 = alloca %union.anon, align 8
  store i32 %0, ptr %2, align 4, !tbaa !129
  call void @llvm.lifetime.start.p0(i64 8, ptr %3) #9
  %4 = load i32, ptr %2, align 4, !tbaa !129
  %5 = sext i32 %4 to i64
  %6 = add nsw i64 4807592602218004480, %5
  store i64 %6, ptr %3, align 8, !tbaa !350
  %7 = load double, ptr %3, align 8, !tbaa !350
  %8 = fsub double %7, 0x42B8000000000000
  call void @llvm.lifetime.end.p0(i64 8, ptr %3) #9
  ret double %8
}

; Function Attrs: nounwind uwtable
define internal void @relativePointerHandleRelativeMotion(ptr noundef %0, ptr noundef %1, i32 noundef %2, i32 noundef %3, i32 noundef %4, i32 noundef %5, i32 noundef %6, i32 noundef %7) #0 {
  %9 = alloca ptr, align 8
  %10 = alloca ptr, align 8
  %11 = alloca i32, align 4
  %12 = alloca i32, align 4
  %13 = alloca i32, align 4
  %14 = alloca i32, align 4
  %15 = alloca i32, align 4
  %16 = alloca i32, align 4
  %17 = alloca ptr, align 8
  %18 = alloca double, align 8
  %19 = alloca double, align 8
  %20 = alloca i32, align 4
  store ptr %0, ptr %9, align 8, !tbaa !151
  store ptr %1, ptr %10, align 8, !tbaa !244
  store i32 %2, ptr %11, align 4, !tbaa !129
  store i32 %3, ptr %12, align 4, !tbaa !129
  store i32 %4, ptr %13, align 4, !tbaa !129
  store i32 %5, ptr %14, align 4, !tbaa !129
  store i32 %6, ptr %15, align 4, !tbaa !129
  store i32 %7, ptr %16, align 4, !tbaa !129
  call void @llvm.lifetime.start.p0(i64 8, ptr %17) #9
  %21 = load ptr, ptr %9, align 8, !tbaa !151
  store ptr %21, ptr %17, align 8, !tbaa !3
  call void @llvm.lifetime.start.p0(i64 8, ptr %18) #9
  %22 = load ptr, ptr %17, align 8, !tbaa !3
  %23 = getelementptr inbounds nuw %struct._GLFWwindow, ptr %22, i32 0, i32 26
  %24 = load double, ptr %23, align 8, !tbaa !518
  store double %24, ptr %18, align 8, !tbaa !299
  call void @llvm.lifetime.start.p0(i64 8, ptr %19) #9
  %25 = load ptr, ptr %17, align 8, !tbaa !3
  %26 = getelementptr inbounds nuw %struct._GLFWwindow, ptr %25, i32 0, i32 27
  %27 = load double, ptr %26, align 8, !tbaa !519
  store double %27, ptr %19, align 8, !tbaa !299
  %28 = load ptr, ptr %17, align 8, !tbaa !3
  %29 = getelementptr inbounds nuw %struct._GLFWwindow, ptr %28, i32 0, i32 23
  %30 = load i32, ptr %29, align 4, !tbaa !329
  %31 = icmp ne i32 %30, 212995
  br i1 %31, label %32, label %33

32:                                               ; preds = %8
  store i32 1, ptr %20, align 4
  br label %60

33:                                               ; preds = %8
  %34 = load ptr, ptr %17, align 8, !tbaa !3
  %35 = getelementptr inbounds nuw %struct._GLFWwindow, ptr %34, i32 0, i32 28
  %36 = load i32, ptr %35, align 8, !tbaa !520
  %37 = icmp ne i32 %36, 0
  br i1 %37, label %38, label %47

38:                                               ; preds = %33
  %39 = load i32, ptr %15, align 4, !tbaa !129
  %40 = call double @wl_fixed_to_double(i32 noundef %39)
  %41 = load double, ptr %18, align 8, !tbaa !299
  %42 = fadd double %41, %40
  store double %42, ptr %18, align 8, !tbaa !299
  %43 = load i32, ptr %16, align 4, !tbaa !129
  %44 = call double @wl_fixed_to_double(i32 noundef %43)
  %45 = load double, ptr %19, align 8, !tbaa !299
  %46 = fadd double %45, %44
  store double %46, ptr %19, align 8, !tbaa !299
  br label %56

47:                                               ; preds = %33
  %48 = load i32, ptr %13, align 4, !tbaa !129
  %49 = call double @wl_fixed_to_double(i32 noundef %48)
  %50 = load double, ptr %18, align 8, !tbaa !299
  %51 = fadd double %50, %49
  store double %51, ptr %18, align 8, !tbaa !299
  %52 = load i32, ptr %14, align 4, !tbaa !129
  %53 = call double @wl_fixed_to_double(i32 noundef %52)
  %54 = load double, ptr %19, align 8, !tbaa !299
  %55 = fadd double %54, %53
  store double %55, ptr %19, align 8, !tbaa !299
  br label %56

56:                                               ; preds = %47, %38
  %57 = load ptr, ptr %17, align 8, !tbaa !3
  %58 = load double, ptr %18, align 8, !tbaa !299
  %59 = load double, ptr %19, align 8, !tbaa !299
  call void @_glfwInputCursorPos(ptr noundef %57, double noundef %58, double noundef %59)
  store i32 0, ptr %20, align 4
  br label %60

60:                                               ; preds = %56, %32
  call void @llvm.lifetime.end.p0(i64 8, ptr %19) #9
  call void @llvm.lifetime.end.p0(i64 8, ptr %18) #9
  call void @llvm.lifetime.end.p0(i64 8, ptr %17) #9
  %61 = load i32, ptr %20, align 4
  switch i32 %61, label %63 [
    i32 0, label %62
    i32 1, label %62
  ]

62:                                               ; preds = %60, %60
  ret void

63:                                               ; preds = %60
  unreachable
}