; Function Attrs: nounwind uwtable
define internal void @relativePointerHandleRelativeMotion(ptr noundef %0, ptr readnone captures(none) %1, i32 %2, i32 %3, i32 noundef %4, i32 noundef %5, i32 noundef %6, i32 noundef %7) #0 {
  %9 = getelementptr inbounds nuw i8, ptr %0, i64 140
  %10 = load i32, ptr %9, align 4, !tbaa !299
  %.not = icmp eq i32 %10, 212995
  br i1 %.not, label %11, label %18

11:                                               ; preds = %8
  %12 = getelementptr inbounds nuw i8, ptr %0, i64 512
  %13 = load double, ptr %12, align 8, !tbaa !404
  %14 = getelementptr inbounds nuw i8, ptr %0, i64 504
  %15 = load double, ptr %14, align 8, !tbaa !405
  %16 = getelementptr inbounds nuw i8, ptr %0, i64 520
  %17 = load i32, ptr %16, align 8, !tbaa !406
  %.not16 = icmp eq i32 %17, 0
  %. = select i1 %.not16, i32 %4, i32 %6
  %.18 = select i1 %.not16, i32 %5, i32 %7
  %.pn17.in.in.in = sext i32 %.18 to i64
  %.pn17.in.in = add nsw i64 %.pn17.in.in.in, 4807592602218004480
  %.pn17.in = bitcast i64 %.pn17.in.in to double
  %.pn17 = fadd double %.pn17.in, 0xC2B8000000000000
  %.pn.in.in.in = sext i32 %. to i64
  %.pn.in.in = add nsw i64 %.pn.in.in.in, 4807592602218004480
  %.pn.in = bitcast i64 %.pn.in.in to double
  %.pn = fadd double %.pn.in, 0xC2B8000000000000
  %.0 = fadd double %13, %.pn17
  %.015 = fadd double %15, %.pn
  tail call void @_glfwInputCursorPos(ptr noundef nonnull %0, double noundef %.015, double noundef %.0) #20
  br label %18

18:                                               ; preds = %8, %11
  ret void
}